; Function Attrs: nofree norecurse nosync nounwind memory(argmem: readwrite) uwtable
define hidden void @cfl_subsample_hbd_422_4x16_c(ptr nocapture noundef readonly %0, i32 noundef %1, ptr nocapture noundef writeonly %2) #5 {
  %4 = sext i32 %1 to i64
  br label %.preheader.us.i

.preheader.us.i:                                  ; preds = %.preheader.us.i, %3
  %.01420.us.i = phi i32 [ %19, %.preheader.us.i ], [ 0, %3 ]
  %.01519.us.i = phi ptr [ %17, %.preheader.us.i ], [ %0, %3 ]
  %.01618.us.i = phi ptr [ %18, %.preheader.us.i ], [ %2, %3 ]
  %5 = load i16, ptr %.01519.us.i, align 2
  %6 = getelementptr inbounds i8, ptr %.01519.us.i, i64 2
  %7 = load i16, ptr %6, align 2
  %8 = add i16 %7, %5
  %9 = shl i16 %8, 2
  store i16 %9, ptr %.01618.us.i, align 2
  %10 = getelementptr inbounds i8, ptr %.01519.us.i, i64 4
  %11 = load i16, ptr %10, align 2
  %12 = getelementptr inbounds i8, ptr %.01519.us.i, i64 6
  %13 = load i16, ptr %12, align 2
  %14 = add i16 %13, %11
  %15 = shl i16 %14, 2
  %16 = getelementptr inbounds i8, ptr %.01618.us.i, i64 2
  store i16 %15, ptr %16, align 2
  %17 = getelementptr inbounds i16, ptr %.01519.us.i, i64 %4
  %18 = getelementptr inbounds i8, ptr %.01618.us.i, i64 64
  %19 = add nuw nsw i32 %.01420.us.i, 1
  %exitcond.not.i = icmp eq i32 %19, 16
  br i1 %exitcond.not.i, label %cfl_luma_subsampling_422_hbd_c.exit, label %.preheader.us.i, !llvm.loop !27

cfl_luma_subsampling_422_hbd_c.exit:              ; preds = %.preheader.us.i
  ret void
}